target datalayout = "e-m:e-p270:32:32-p271:32:32-p272:64:64-i64:64-i128:128-f80:128-n8:16:32:64-S128"
target triple = "x86_64-pc-linux-gnu"

@libctx = internal global ptr null, align 8
@.str.6 = private unnamed_addr constant [37 x i8] c"../openssl/test/provider_pkey_test.c\00", align 1
@.str.7 = private unnamed_addr constant [34 x i8] c"fake_rsa = fake_rsa_start(libctx)\00", align 1
@.str.8 = private unnamed_addr constant [46 x i8] c"deflt = OSSL_PROVIDER_load(libctx, \22default\22)\00", align 1
@.str.9 = private unnamed_addr constant [8 x i8] c"default\00", align 1
@.str.11 = private unnamed_addr constant [4 x i8] c"RSA\00", align 1
@.str.14 = private unnamed_addr constant [19 x i8] c"?provider=fake-rsa\00", align 1
@.str.18 = private unnamed_addr constant [5 x i8] c"pkey\00", align 1
@.str.22 = private unnamed_addr constant [2 x i8] c"1\00", align 1
@.str.49 = private unnamed_addr constant [60 x i8] c"loader = OSSL_STORE_LOADER_fetch(libctx, \22fake_rsa\22, propq)\00", align 1
@.str.50 = private unnamed_addr constant [9 x i8] c"fake_rsa\00", align 1
@.str.51 = private unnamed_addr constant [87 x i8] c"ctx = OSSL_STORE_open_ex(\22fake_rsa:test\22, libctx, propq, NULL, NULL, NULL, NULL, NULL)\00", align 1
@.str.52 = private unnamed_addr constant [14 x i8] c"fake_rsa:test\00", align 1
@.str.53 = private unnamed_addr constant [27 x i8] c"EVP_PKEY_is_a(pkey, \22RSA\22)\00", align 1
@.str.54 = private unnamed_addr constant [68 x i8] c"OSSL_STORE_delete(\22fake_rsa:test\22, libctx, propq, NULL, NULL, NULL)\00", align 1
@.str.55 = private unnamed_addr constant [22 x i8] c"OSSL_STORE_close(ctx)\00", align 1
@.str.56 = private unnamed_addr constant [5 x i8] c"info\00", align 1

; Function Attrs: nounwind uwtable
define internal i32 @test_pkey_delete() #0 {
  %1 = alloca ptr, align 8
  %2 = alloca ptr, align 8
  %3 = alloca i32, align 4
  %4 = alloca ptr, align 8
  %5 = alloca ptr, align 8
  %6 = alloca ptr, align 8
  %7 = alloca ptr, align 8
  %8 = alloca ptr, align 8
  call void @llvm.lifetime.start.p0(i64 8, ptr %1) #3
  store ptr null, ptr %1, align 8, !tbaa !9
  call void @llvm.lifetime.start.p0(i64 8, ptr %2) #3
  store ptr null, ptr %2, align 8, !tbaa !9
  call void @llvm.lifetime.start.p0(i64 4, ptr %3) #3
  store i32 0, ptr %3, align 4, !tbaa !11
  call void @llvm.lifetime.start.p0(i64 8, ptr %4) #3
  store ptr null, ptr %4, align 8, !tbaa !13
  call void @llvm.lifetime.start.p0(i64 8, ptr %5) #3
  store ptr null, ptr %5, align 8, !tbaa !25
  call void @llvm.lifetime.start.p0(i64 8, ptr %6) #3
  store ptr null, ptr %6, align 8, !tbaa !27
  call void @llvm.lifetime.start.p0(i64 8, ptr %7) #3
  call void @llvm.lifetime.start.p0(i64 8, ptr %8) #3
  store ptr @.str.14, ptr %8, align 8, !tbaa !21
  %9 = load ptr, ptr @libctx, align 8, !tbaa !4
  %10 = call ptr @OSSL_PROVIDER_load(ptr noundef %9, ptr noundef @.str.9)
  store ptr %10, ptr %1, align 8, !tbaa !9
  %11 = call i32 @test_ptr(ptr noundef @.str.6, i32 noundef 305, ptr noundef @.str.8, ptr noundef %10)
  %12 = icmp ne i32 %11, 0
  br i1 %12, label %14, label %13

13:                                               ; preds = %0
  br label %104

14:                                               ; preds = %0
  %15 = load ptr, ptr @libctx, align 8, !tbaa !4
  %16 = call ptr @fake_rsa_start(ptr noundef %15)
  store ptr %16, ptr %2, align 8, !tbaa !9
  %17 = call i32 @test_ptr(ptr noundef @.str.6, i32 noundef 308, ptr noundef @.str.7, ptr noundef %16)
  %18 = icmp ne i32 %17, 0
  br i1 %18, label %20, label %19

19:                                               ; preds = %14
  br label %104

20:                                               ; preds = %14
  %21 = load ptr, ptr @libctx, align 8, !tbaa !4
  %22 = load ptr, ptr %8, align 8, !tbaa !21
  %23 = call ptr @OSSL_STORE_LOADER_fetch(ptr noundef %21, ptr noundef @.str.50, ptr noundef %22)
  store ptr %23, ptr %5, align 8, !tbaa !25
  %24 = call i32 @test_ptr(ptr noundef @.str.6, i32 noundef 312, ptr noundef @.str.49, ptr noundef %23)
  %25 = icmp ne i32 %24, 0
  br i1 %25, label %27, label %26

26:                                               ; preds = %20
  br label %104

27:                                               ; preds = %20
  %28 = load ptr, ptr %5, align 8, !tbaa !25
  call void @OSSL_STORE_LOADER_free(ptr noundef %28)
  %29 = load ptr, ptr @libctx, align 8, !tbaa !4
  %30 = load ptr, ptr %8, align 8, !tbaa !21
  %31 = call ptr @OSSL_STORE_open_ex(ptr noundef @.str.52, ptr noundef %29, ptr noundef %30, ptr noundef null, ptr noundef null, ptr noundef null, ptr noundef null, ptr noundef null)
  store ptr %31, ptr %6, align 8, !tbaa !27
  %32 = call i32 @test_ptr(ptr noundef @.str.6, i32 noundef 319, ptr noundef @.str.51, ptr noundef %31)
  %33 = icmp ne i32 %32, 0
  br i1 %33, label %35, label %34

34:                                               ; preds = %27
  br label %104

35:                                               ; preds = %27
  br label %36

36:                                               ; preds = %56, %35
  %37 = load ptr, ptr %6, align 8, !tbaa !27
  %38 = call i32 @OSSL_STORE_eof(ptr noundef %37)
  %39 = icmp ne i32 %38, 0
  br i1 %39, label %47, label %40

40:                                               ; preds = %36
  %41 = load ptr, ptr %6, align 8, !tbaa !27
  %42 = call ptr @OSSL_STORE_load(ptr noundef %41)
  store ptr %42, ptr %7, align 8, !tbaa !29
  %43 = icmp ne ptr %42, null
  br i1 %43, label %44, label %47

44:                                               ; preds = %40
  %45 = load ptr, ptr %4, align 8, !tbaa !13
  %46 = icmp eq ptr %45, null
  br label %47

47:                                               ; preds = %44, %40, %36
  %48 = phi i1 [ false, %40 ], [ false, %36 ], [ %46, %44 ]
  br i1 %48, label %49, label %58

49:                                               ; preds = %47
  %50 = load ptr, ptr %7, align 8, !tbaa !29
  %51 = call i32 @OSSL_STORE_INFO_get_type(ptr noundef %50)
  %52 = icmp eq i32 %51, 4
  br i1 %52, label %53, label %56

53:                                               ; preds = %49
  %54 = load ptr, ptr %7, align 8, !tbaa !29
  %55 = call ptr @OSSL_STORE_INFO_get1_PKEY(ptr noundef %54)
  store ptr %55, ptr %4, align 8, !tbaa !13
  br label %56

56:                                               ; preds = %53, %49
  %57 = load ptr, ptr %7, align 8, !tbaa !29
  call void @OSSL_STORE_INFO_free(ptr noundef %57)
  store ptr null, ptr %7, align 8, !tbaa !29
  br label %36, !llvm.loop !32

58:                                               ; preds = %47
  %59 = load ptr, ptr %4, align 8, !tbaa !13
  %60 = call i32 @test_ptr(ptr noundef @.str.6, i32 noundef 331, ptr noundef @.str.18, ptr noundef %59)
  %61 = icmp ne i32 %60, 0
  br i1 %61, label %62, label %67

62:                                               ; preds = %58
  %63 = load ptr, ptr %4, align 8, !tbaa !13
  %64 = call i32 @EVP_PKEY_is_a(ptr noundef %63, ptr noundef @.str.11)
  %65 = call i32 @test_int_eq(ptr noundef @.str.6, i32 noundef 331, ptr noundef @.str.53, ptr noundef @.str.22, i32 noundef %64, i32 noundef 1)
  %66 = icmp ne i32 %65, 0
  br i1 %66, label %68, label %67

67:                                               ; preds = %62, %58
  br label %104

68:                                               ; preds = %62
  %69 = load ptr, ptr %4, align 8, !tbaa !13
  call void @EVP_PKEY_free(ptr noundef %69)
  store ptr null, ptr %4, align 8, !tbaa !13
  %70 = load ptr, ptr @libctx, align 8, !tbaa !4
  %71 = load ptr, ptr %8, align 8, !tbaa !21
  %72 = call i32 @OSSL_STORE_delete(ptr noundef @.str.52, ptr noundef %70, ptr noundef %71, ptr noundef null, ptr noundef null, ptr noundef null)
  %73 = call i32 @test_int_eq(ptr noundef @.str.6, i32 noundef 337, ptr noundef @.str.54, ptr noundef @.str.22, i32 noundef %72, i32 noundef 1)
  %74 = icmp ne i32 %73, 0
  br i1 %74, label %76, label %75

75:                                               ; preds = %68
  br label %104

76:                                               ; preds = %68
  %77 = load ptr, ptr %6, align 8, !tbaa !27
  %78 = call i32 @OSSL_STORE_close(ptr noundef %77)
  %79 = call i32 @test_int_eq(ptr noundef @.str.6, i32 noundef 339, ptr noundef @.str.55, ptr noundef @.str.22, i32 noundef %78, i32 noundef 1)
  %80 = icmp ne i32 %79, 0
  br i1 %80, label %82, label %81

81:                                               ; preds = %76
  br label %104

82:                                               ; preds = %76
  %83 = load ptr, ptr @libctx, align 8, !tbaa !4
  %84 = load ptr, ptr %8, align 8, !tbaa !21
  %85 = call ptr @OSSL_STORE_open_ex(ptr noundef @.str.52, ptr noundef %83, ptr noundef %84, ptr noundef null, ptr noundef null, ptr noundef null, ptr noundef null, ptr noundef null)
  store ptr %85, ptr %6, align 8, !tbaa !27
  %86 = call i32 @test_ptr(ptr noundef @.str.6, i32 noundef 344, ptr noundef @.str.51, ptr noundef %85)
  %87 = icmp ne i32 %86, 0
  br i1 %87, label %89, label %88

88:                                               ; preds = %82
  br label %104

89:                                               ; preds = %82
  br label %90

90:                                               ; preds = %102, %89
  %91 = load ptr, ptr %6, align 8, !tbaa !27
  %92 = call i32 @OSSL_STORE_eof(ptr noundef %91)
  %93 = icmp ne i32 %92, 0
  %94 = xor i1 %93, true
  br i1 %94, label %95, label %103

95:                                               ; preds = %90
  %96 = load ptr, ptr %6, align 8, !tbaa !27
  %97 = call ptr @OSSL_STORE_load(ptr noundef %96)
  store ptr %97, ptr %7, align 8, !tbaa !29
  %98 = load ptr, ptr %7, align 8, !tbaa !29
  %99 = call i32 @test_ptr_null(ptr noundef @.str.6, i32 noundef 349, ptr noundef @.str.56, ptr noundef %98)
  %100 = icmp ne i32 %99, 0
  br i1 %100, label %102, label %101

101:                                              ; preds = %95
  br label %104

102:                                              ; preds = %95
  br label %90, !llvm.loop !33

103:                                              ; preds = %90
  store i32 1, ptr %3, align 4, !tbaa !11
  br label %104

104:                                              ; preds = %103, %101, %88, %81, %75, %67, %34, %26, %19, %13
  %105 = load ptr, ptr %2, align 8, !tbaa !9
  call void @fake_rsa_finish(ptr noundef %105)
  %106 = load ptr, ptr %1, align 8, !tbaa !9
  %107 = call i32 @OSSL_PROVIDER_unload(ptr noundef %106)
  %108 = load ptr, ptr %6, align 8, !tbaa !27
  %109 = call i32 @OSSL_STORE_close(ptr noundef %108)
  call void @fake_rsa_restore_store_state()
  %110 = load i32, ptr %3, align 4, !tbaa !11
  call void @llvm.lifetime.end.p0(i64 8, ptr %8) #3
  call void @llvm.lifetime.end.p0(i64 8, ptr %7) #3
  call void @llvm.lifetime.end.p0(i64 8, ptr %6) #3
  call void @llvm.lifetime.end.p0(i64 8, ptr %5) #3
  call void @llvm.lifetime.end.p0(i64 8, ptr %4) #3
  call void @llvm.lifetime.end.p0(i64 4, ptr %3) #3
  call void @llvm.lifetime.end.p0(i64 8, ptr %2) #3
  call void @llvm.lifetime.end.p0(i64 8, ptr %1) #3
  ret i32 %110
}