; Function Attrs: nounwind uwtable
define internal range(i32 0, 2) i32 @test_pkey_delete() #0 {
  %1 = load ptr, ptr @libctx, align 8, !tbaa !4
  %2 = tail call ptr @OSSL_PROVIDER_load(ptr noundef %1, ptr noundef nonnull @.str.9) #3
  %3 = tail call i32 @test_ptr(ptr noundef nonnull @.str.6, i32 noundef 305, ptr noundef nonnull @.str.8, ptr noundef %2) #3
  %.not = icmp eq i32 %3, 0
  br i1 %.not, label %.loopexit, label %4

4:                                                ; preds = %0
  %5 = load ptr, ptr @libctx, align 8, !tbaa !4
  %6 = tail call ptr @fake_rsa_start(ptr noundef %5) #3
  %7 = tail call i32 @test_ptr(ptr noundef nonnull @.str.6, i32 noundef 308, ptr noundef nonnull @.str.7, ptr noundef %6) #3
  %.not26 = icmp eq i32 %7, 0
  br i1 %.not26, label %.loopexit, label %8

8:                                                ; preds = %4
  %9 = load ptr, ptr @libctx, align 8, !tbaa !4
  %10 = tail call ptr @OSSL_STORE_LOADER_fetch(ptr noundef %9, ptr noundef nonnull @.str.50, ptr noundef nonnull @.str.14) #3
  %11 = tail call i32 @test_ptr(ptr noundef nonnull @.str.6, i32 noundef 312, ptr noundef nonnull @.str.49, ptr noundef %10) #3
  %.not27 = icmp eq i32 %11, 0
  br i1 %.not27, label %.loopexit, label %12

12:                                               ; preds = %8
  tail call void @OSSL_STORE_LOADER_free(ptr noundef %10) #3
  %13 = load ptr, ptr @libctx, align 8, !tbaa !4
  %14 = tail call ptr @OSSL_STORE_open_ex(ptr noundef nonnull @.str.52, ptr noundef %13, ptr noundef nonnull @.str.14, ptr noundef null, ptr noundef null, ptr noundef null, ptr noundef null, ptr noundef null) #3
  %15 = tail call i32 @test_ptr(ptr noundef nonnull @.str.6, i32 noundef 319, ptr noundef nonnull @.str.51, ptr noundef %14) #3
  %.not28 = icmp eq i32 %15, 0
  br i1 %.not28, label %.loopexit, label %.preheader37

.preheader37:                                     ; preds = %12
  %16 = tail call i32 @OSSL_STORE_eof(ptr noundef %14) #3
  %.not2938 = icmp eq i32 %16, 0
  br i1 %.not2938, label %.lr.ph, label %.critedge

.lr.ph:                                           ; preds = %.preheader37, %25
  %.02239 = phi ptr [ %.1, %25 ], [ null, %.preheader37 ]
  %17 = tail call ptr @OSSL_STORE_load(ptr noundef %14) #3
  %18 = icmp ne ptr %17, null
  %19 = icmp eq ptr %.02239, null
  %or.cond = select i1 %18, i1 %19, i1 false
  br i1 %or.cond, label %20, label %.critedge

20:                                               ; preds = %.lr.ph
  %21 = tail call i32 @OSSL_STORE_INFO_get_type(ptr noundef nonnull %17) #3
  %22 = icmp eq i32 %21, 4
  br i1 %22, label %23, label %25

23:                                               ; preds = %20
  %24 = tail call ptr @OSSL_STORE_INFO_get1_PKEY(ptr noundef nonnull %17) #3
  br label %25

25:                                               ; preds = %23, %20
  %.1 = phi ptr [ %24, %23 ], [ null, %20 ]
  tail call void @OSSL_STORE_INFO_free(ptr noundef nonnull %17) #3
  %26 = tail call i32 @OSSL_STORE_eof(ptr noundef %14) #3
  %.not29 = icmp eq i32 %26, 0
  br i1 %.not29, label %.lr.ph, label %.critedge, !llvm.loop !16

.critedge:                                        ; preds = %25, %.lr.ph, %.preheader37
  %.022.lcssa = phi ptr [ null, %.preheader37 ], [ %.02239, %.lr.ph ], [ %.1, %25 ]
  %27 = tail call i32 @test_ptr(ptr noundef nonnull @.str.6, i32 noundef 331, ptr noundef nonnull @.str.18, ptr noundef %.022.lcssa) #3
  %.not30 = icmp eq i32 %27, 0
  br i1 %.not30, label %.loopexit, label %28

28:                                               ; preds = %.critedge
  %29 = tail call i32 @EVP_PKEY_is_a(ptr noundef %.022.lcssa, ptr noundef nonnull @.str.11) #3
  %30 = tail call i32 @test_int_eq(ptr noundef nonnull @.str.6, i32 noundef 331, ptr noundef nonnull @.str.53, ptr noundef nonnull @.str.22, i32 noundef %29, i32 noundef 1) #3
  %.not31 = icmp eq i32 %30, 0
  br i1 %.not31, label %.loopexit, label %31

31:                                               ; preds = %28
  tail call void @EVP_PKEY_free(ptr noundef %.022.lcssa) #3
  %32 = load ptr, ptr @libctx, align 8, !tbaa !4
  %33 = tail call i32 @OSSL_STORE_delete(ptr noundef nonnull @.str.52, ptr noundef %32, ptr noundef nonnull @.str.14, ptr noundef null, ptr noundef null, ptr noundef null) #3
  %34 = tail call i32 @test_int_eq(ptr noundef nonnull @.str.6, i32 noundef 337, ptr noundef nonnull @.str.54, ptr noundef nonnull @.str.22, i32 noundef %33, i32 noundef 1) #3
  %.not32 = icmp eq i32 %34, 0
  br i1 %.not32, label %.loopexit, label %35

35:                                               ; preds = %31
  %36 = tail call i32 @OSSL_STORE_close(ptr noundef %14) #3
  %37 = tail call i32 @test_int_eq(ptr noundef nonnull @.str.6, i32 noundef 339, ptr noundef nonnull @.str.55, ptr noundef nonnull @.str.22, i32 noundef %36, i32 noundef 1) #3
  %.not33 = icmp eq i32 %37, 0
  br i1 %.not33, label %.loopexit, label %38

38:                                               ; preds = %35
  %39 = load ptr, ptr @libctx, align 8, !tbaa !4
  %40 = tail call ptr @OSSL_STORE_open_ex(ptr noundef nonnull @.str.52, ptr noundef %39, ptr noundef nonnull @.str.14, ptr noundef null, ptr noundef null, ptr noundef null, ptr noundef null, ptr noundef null) #3
  %41 = tail call i32 @test_ptr(ptr noundef nonnull @.str.6, i32 noundef 344, ptr noundef nonnull @.str.51, ptr noundef %40) #3
  %.not34 = icmp eq i32 %41, 0
  br i1 %.not34, label %.loopexit, label %.preheader

.preheader:                                       ; preds = %38, %43
  %42 = tail call i32 @OSSL_STORE_eof(ptr noundef %40) #3
  %.not35 = icmp eq i32 %42, 0
  br i1 %.not35, label %43, label %.loopexit

43:                                               ; preds = %.preheader
  %44 = tail call ptr @OSSL_STORE_load(ptr noundef %40) #3
  %45 = tail call i32 @test_ptr_null(ptr noundef nonnull @.str.6, i32 noundef 349, ptr noundef nonnull @.str.56, ptr noundef %44) #3
  %.not36 = icmp eq i32 %45, 0
  br i1 %.not36, label %.loopexit, label %.preheader, !llvm.loop !17

.loopexit:                                        ; preds = %.preheader, %43, %38, %35, %31, %.critedge, %28, %12, %8, %4, %0
  %.024 = phi ptr [ %6, %38 ], [ %6, %35 ], [ %6, %31 ], [ %6, %28 ], [ %6, %.critedge ], [ %6, %12 ], [ %6, %8 ], [ %6, %4 ], [ null, %0 ], [ %6, %43 ], [ %6, %.preheader ]
  %.023 = phi i32 [ 0, %38 ], [ 0, %35 ], [ 0, %31 ], [ 0, %28 ], [ 0, %.critedge ], [ 0, %12 ], [ 0, %8 ], [ 0, %4 ], [ 0, %0 ], [ 1, %.preheader ], [ 0, %43 ]
  %.0 = phi ptr [ %40, %38 ], [ %14, %35 ], [ %14, %31 ], [ %14, %28 ], [ %14, %.critedge ], [ %14, %12 ], [ null, %8 ], [ null, %4 ], [ null, %0 ], [ %40, %43 ], [ %40, %.preheader ]
  tail call void @fake_rsa_finish(ptr noundef %.024) #3
  %46 = tail call i32 @OSSL_PROVIDER_unload(ptr noundef %2) #3
  %47 = tail call i32 @OSSL_STORE_close(ptr noundef %.0) #3
  tail call void @fake_rsa_restore_store_state() #3
  ret i32 %.023
}